target datalayout = "e-m:e-p270:32:32-p271:32:32-p272:64:64-i64:64-i128:128-f80:128-n8:16:32:64-S128"
target triple = "x86_64-pc-linux-gnu"

%struct.Amap_Man_t_ = type { ptr, ptr, float, float, i32, i32, ptr, ptr, ptr, ptr, ptr, ptr, ptr, ptr, [7 x i32], i32, i32, i32, ptr, ptr, ptr, ptr, ptr, ptr, ptr, ptr, i32, i32, i32, i32 }
%struct.Amap_Obj_t_ = type { i64, i32, i32, i32, i32, [3 x i32], %union.anon, float, [2 x i32], %struct.Amap_Mat_t_ }
%union.anon = type { ptr }
%struct.Amap_Mat_t_ = type { ptr, ptr, float, float, float }

; Function Attrs: inlinehint nounwind uwtable
define internal i32 @Abc_Var2Lit(i32 noundef %0, i32 noundef %1) #4 {
  %3 = alloca i32, align 4
  %4 = alloca i32, align 4
  store i32 %0, ptr %3, align 4, !tbaa !23
  store i32 %1, ptr %4, align 4, !tbaa !23
  %5 = load i32, ptr %3, align 4, !tbaa !23
  %6 = load i32, ptr %3, align 4, !tbaa !23
  %7 = add nsw i32 %5, %6
  %8 = load i32, ptr %4, align 4, !tbaa !23
  %9 = add nsw i32 %7, %8
  ret i32 %9
}

; Function Attrs: inlinehint nounwind uwtable
define internal i32 @Amap_IsComplement(ptr noundef %0) #4 {
  %2 = alloca ptr, align 8
  store ptr %0, ptr %2, align 8, !tbaa !22
  %3 = load ptr, ptr %2, align 8, !tbaa !22
  %4 = ptrtoint ptr %3 to i64
  %5 = and i64 %4, 1
  %6 = trunc i64 %5 to i32
  ret i32 %6
}

; Function Attrs: inlinehint nounwind uwtable
define internal i32 @Abc_MaxInt(i32 noundef %0, i32 noundef %1) #4 {
  %3 = alloca i32, align 4
  %4 = alloca i32, align 4
  store i32 %0, ptr %3, align 4, !tbaa !23
  store i32 %1, ptr %4, align 4, !tbaa !23
  %5 = load i32, ptr %3, align 4, !tbaa !23
  %6 = load i32, ptr %4, align 4, !tbaa !23
  %7 = icmp sgt i32 %5, %6
  br i1 %7, label %8, label %10

8:                                                ; preds = %2
  %9 = load i32, ptr %3, align 4, !tbaa !23
  br label %12

10:                                               ; preds = %2
  %11 = load i32, ptr %4, align 4, !tbaa !23
  br label %12

12:                                               ; preds = %10, %8
  %13 = phi i32 [ %9, %8 ], [ %11, %10 ]
  ret i32 %13
}

; Function Attrs: inlinehint nounwind uwtable
define internal i32 @Amap_ObjPhaseReal(ptr noundef %0) #4 {
  %2 = alloca ptr, align 8
  store ptr %0, ptr %2, align 8, !tbaa !22
  %3 = load ptr, ptr %2, align 8, !tbaa !22
  %4 = call ptr @Amap_Regular(ptr noundef %3)
  %5 = load i64, ptr %4, align 8
  %6 = lshr i64 %5, 61
  %7 = and i64 %6, 1
  %8 = trunc i64 %7 to i32
  %9 = load ptr, ptr %2, align 8, !tbaa !22
  %10 = call i32 @Amap_IsComplement(ptr noundef %9)
  %11 = xor i32 %8, %10
  ret i32 %11
}

; Function Attrs: inlinehint nounwind uwtable
define internal ptr @Amap_Regular(ptr noundef %0) #4 {
  %2 = alloca ptr, align 8
  store ptr %0, ptr %2, align 8, !tbaa !22
  %3 = load ptr, ptr %2, align 8, !tbaa !22
  %4 = ptrtoint ptr %3 to i64
  %5 = and i64 %4, -2
  %6 = inttoptr i64 %5 to ptr
  ret ptr %6
}

; Function Attrs: inlinehint nounwind uwtable
define internal i32 @Amap_ObjToLit(ptr noundef %0) #4 {
  %2 = alloca ptr, align 8
  store ptr %0, ptr %2, align 8, !tbaa !22
  %3 = load ptr, ptr %2, align 8, !tbaa !22
  %4 = call ptr @Amap_Regular(ptr noundef %3)
  %5 = load i64, ptr %4, align 8
  %6 = lshr i64 %5, 3
  %7 = and i64 %6, 536870911
  %8 = trunc i64 %7 to i32
  %9 = load ptr, ptr %2, align 8, !tbaa !22
  %10 = call i32 @Amap_IsComplement(ptr noundef %9)
  %11 = call i32 @Abc_Var2Lit(i32 noundef %8, i32 noundef %10)
  ret i32 %11
}

; Function Attrs: nounwind uwtable
define ptr @Amap_ManCreateMux(ptr noundef %0, ptr noundef %1, ptr noundef %2, ptr noundef %3) #0 {
  %5 = alloca ptr, align 8
  %6 = alloca ptr, align 8
  %7 = alloca ptr, align 8
  %8 = alloca ptr, align 8
  %9 = alloca ptr, align 8
  store ptr %0, ptr %5, align 8, !tbaa !3
  store ptr %1, ptr %6, align 8, !tbaa !22
  store ptr %2, ptr %7, align 8, !tbaa !22
  store ptr %3, ptr %8, align 8, !tbaa !22
  call void @llvm.lifetime.start.p0(i64 8, ptr %9) #8
  %10 = load ptr, ptr %5, align 8, !tbaa !3
  %11 = call ptr @Amap_ManSetupObj(ptr noundef %10)
  store ptr %11, ptr %9, align 8, !tbaa !22
  %12 = load ptr, ptr %9, align 8, !tbaa !22
  %13 = load i64, ptr %12, align 8
  %14 = and i64 %13, -8
  %15 = or i64 %14, 6
  store i64 %15, ptr %12, align 8
  %16 = load ptr, ptr %6, align 8, !tbaa !22
  %17 = call i32 @Amap_ObjToLit(ptr noundef %16)
  %18 = load ptr, ptr %9, align 8, !tbaa !22
  %19 = getelementptr inbounds nuw %struct.Amap_Obj_t_, ptr %18, i32 0, i32 5
  %20 = getelementptr inbounds [3 x i32], ptr %19, i64 0, i64 0
  store i32 %17, ptr %20, align 8, !tbaa !23
  %21 = load ptr, ptr %6, align 8, !tbaa !22
  %22 = call ptr @Amap_Regular(ptr noundef %21)
  %23 = getelementptr inbounds nuw %struct.Amap_Obj_t_, ptr %22, i32 0, i32 3
  %24 = load i32, ptr %23, align 8, !tbaa !33
  %25 = add nsw i32 %24, 1
  store i32 %25, ptr %23, align 8, !tbaa !33
  %26 = load ptr, ptr %7, align 8, !tbaa !22
  %27 = call i32 @Amap_ObjToLit(ptr noundef %26)
  %28 = load ptr, ptr %9, align 8, !tbaa !22
  %29 = getelementptr inbounds nuw %struct.Amap_Obj_t_, ptr %28, i32 0, i32 5
  %30 = getelementptr inbounds [3 x i32], ptr %29, i64 0, i64 1
  store i32 %27, ptr %30, align 4, !tbaa !23
  %31 = load ptr, ptr %7, align 8, !tbaa !22
  %32 = call ptr @Amap_Regular(ptr noundef %31)
  %33 = getelementptr inbounds nuw %struct.Amap_Obj_t_, ptr %32, i32 0, i32 3
  %34 = load i32, ptr %33, align 8, !tbaa !33
  %35 = add nsw i32 %34, 1
  store i32 %35, ptr %33, align 8, !tbaa !33
  %36 = load ptr, ptr %8, align 8, !tbaa !22
  %37 = call i32 @Amap_ObjToLit(ptr noundef %36)
  %38 = load ptr, ptr %9, align 8, !tbaa !22
  %39 = getelementptr inbounds nuw %struct.Amap_Obj_t_, ptr %38, i32 0, i32 5
  %40 = getelementptr inbounds [3 x i32], ptr %39, i64 0, i64 2
  store i32 %37, ptr %40, align 8, !tbaa !23
  %41 = load ptr, ptr %8, align 8, !tbaa !22
  %42 = call ptr @Amap_Regular(ptr noundef %41)
  %43 = getelementptr inbounds nuw %struct.Amap_Obj_t_, ptr %42, i32 0, i32 3
  %44 = load i32, ptr %43, align 8, !tbaa !33
  %45 = add nsw i32 %44, 1
  store i32 %45, ptr %43, align 8, !tbaa !33
  %46 = load ptr, ptr %7, align 8, !tbaa !22
  %47 = call i32 @Amap_ObjPhaseReal(ptr noundef %46)
  %48 = load ptr, ptr %8, align 8, !tbaa !22
  %49 = call i32 @Amap_ObjPhaseReal(ptr noundef %48)
  %50 = and i32 %47, %49
  %51 = load ptr, ptr %6, align 8, !tbaa !22
  %52 = call i32 @Amap_ObjPhaseReal(ptr noundef %51)
  %53 = load ptr, ptr %8, align 8, !tbaa !22
  %54 = call i32 @Amap_ObjPhaseReal(ptr noundef %53)
  %55 = xor i32 %54, -1
  %56 = and i32 %52, %55
  %57 = or i32 %50, %56
  %58 = load ptr, ptr %9, align 8, !tbaa !22
  %59 = zext i32 %57 to i64
  %60 = load i64, ptr %58, align 8
  %61 = and i64 %59, 1
  %62 = shl i64 %61, 61
  %63 = and i64 %60, -2305843009213693953
  %64 = or i64 %63, %62
  store i64 %64, ptr %58, align 8
  %65 = load ptr, ptr %6, align 8, !tbaa !22
  %66 = call ptr @Amap_Regular(ptr noundef %65)
  %67 = getelementptr inbounds nuw %struct.Amap_Obj_t_, ptr %66, i32 0, i32 1
  %68 = load i32, ptr %67, align 8, !tbaa !37
  %69 = load ptr, ptr %7, align 8, !tbaa !22
  %70 = call ptr @Amap_Regular(ptr noundef %69)
  %71 = getelementptr inbounds nuw %struct.Amap_Obj_t_, ptr %70, i32 0, i32 1
  %72 = load i32, ptr %71, align 8, !tbaa !37
  %73 = call i32 @Abc_MaxInt(i32 noundef %68, i32 noundef %72)
  %74 = load ptr, ptr %9, align 8, !tbaa !22
  %75 = getelementptr inbounds nuw %struct.Amap_Obj_t_, ptr %74, i32 0, i32 1
  store i32 %73, ptr %75, align 8, !tbaa !37
  %76 = load ptr, ptr %9, align 8, !tbaa !22
  %77 = getelementptr inbounds nuw %struct.Amap_Obj_t_, ptr %76, i32 0, i32 1
  %78 = load i32, ptr %77, align 8, !tbaa !37
  %79 = load ptr, ptr %8, align 8, !tbaa !22
  %80 = call ptr @Amap_Regular(ptr noundef %79)
  %81 = getelementptr inbounds nuw %struct.Amap_Obj_t_, ptr %80, i32 0, i32 1
  %82 = load i32, ptr %81, align 8, !tbaa !37
  %83 = call i32 @Abc_MaxInt(i32 noundef %78, i32 noundef %82)
  %84 = add nsw i32 2, %83
  %85 = load ptr, ptr %9, align 8, !tbaa !22
  %86 = getelementptr inbounds nuw %struct.Amap_Obj_t_, ptr %85, i32 0, i32 1
  store i32 %84, ptr %86, align 8, !tbaa !37
  %87 = load ptr, ptr %5, align 8, !tbaa !3
  %88 = getelementptr inbounds nuw %struct.Amap_Man_t_, ptr %87, i32 0, i32 15
  %89 = load i32, ptr %88, align 4, !tbaa !38
  %90 = load ptr, ptr %9, align 8, !tbaa !22
  %91 = getelementptr inbounds nuw %struct.Amap_Obj_t_, ptr %90, i32 0, i32 1
  %92 = load i32, ptr %91, align 8, !tbaa !37
  %93 = icmp slt i32 %89, %92
  br i1 %93, label %94, label %100

94:                                               ; preds = %4
  %95 = load ptr, ptr %9, align 8, !tbaa !22
  %96 = getelementptr inbounds nuw %struct.Amap_Obj_t_, ptr %95, i32 0, i32 1
  %97 = load i32, ptr %96, align 8, !tbaa !37
  %98 = load ptr, ptr %5, align 8, !tbaa !3
  %99 = getelementptr inbounds nuw %struct.Amap_Man_t_, ptr %98, i32 0, i32 15
  store i32 %97, ptr %99, align 4, !tbaa !38
  br label %100

100:                                              ; preds = %94, %4
  %101 = load ptr, ptr %5, align 8, !tbaa !3
  %102 = getelementptr inbounds nuw %struct.Amap_Man_t_, ptr %101, i32 0, i32 14
  %103 = getelementptr inbounds [7 x i32], ptr %102, i64 0, i64 6
  %104 = load i32, ptr %103, align 8, !tbaa !23
  %105 = add nsw i32 %104, 1
  store i32 %105, ptr %103, align 8, !tbaa !23
  %106 = load ptr, ptr %9, align 8, !tbaa !22
  call void @llvm.lifetime.end.p0(i64 8, ptr %9) #8
  ret ptr %106
}