; Function Attrs: nounwind uwtable
define noundef ptr @Amap_ManCreateMux(ptr noundef captures(none) %0, ptr noundef %1, ptr noundef %2, ptr noundef %3) local_unnamed_addr #0 {
  %5 = tail call ptr @Amap_ManSetupObj(ptr noundef %0)
  %6 = load i64, ptr %5, align 8
  %7 = and i64 %6, -8
  %8 = or disjoint i64 %7, 6
  store i64 %8, ptr %5, align 8
  %9 = ptrtoint ptr %1 to i64
  %10 = and i64 %9, -2
  %11 = inttoptr i64 %10 to ptr
  %12 = load i64, ptr %11, align 8
  %13 = trunc i64 %12 to i32
  %14 = trunc i64 %9 to i32
  %15 = and i32 %14, 1
  %16 = lshr i32 %13, 2
  %17 = and i32 %16, 1073741822
  %18 = or disjoint i32 %17, %15
  %19 = getelementptr inbounds nuw i8, ptr %5, i64 24
  store i32 %18, ptr %19, align 8, !tbaa !20
  %20 = getelementptr inbounds nuw i8, ptr %11, i64 16
  %21 = load i32, ptr %20, align 8, !tbaa !29
  %22 = add nsw i32 %21, 1
  store i32 %22, ptr %20, align 8, !tbaa !29
  %23 = ptrtoint ptr %2 to i64
  %24 = and i64 %23, -2
  %25 = inttoptr i64 %24 to ptr
  %26 = load i64, ptr %25, align 8
  %27 = trunc i64 %26 to i32
  %28 = trunc i64 %23 to i32
  %29 = and i32 %28, 1
  %30 = lshr i32 %27, 2
  %31 = and i32 %30, 1073741822
  %32 = or disjoint i32 %31, %29
  %33 = getelementptr inbounds nuw i8, ptr %5, i64 28
  store i32 %32, ptr %33, align 4, !tbaa !20
  %34 = getelementptr inbounds nuw i8, ptr %25, i64 16
  %35 = load i32, ptr %34, align 8, !tbaa !29
  %36 = add nsw i32 %35, 1
  store i32 %36, ptr %34, align 8, !tbaa !29
  %37 = ptrtoint ptr %3 to i64
  %38 = and i64 %37, -2
  %39 = inttoptr i64 %38 to ptr
  %40 = load i64, ptr %39, align 8
  %41 = trunc i64 %40 to i32
  %42 = trunc i64 %37 to i32
  %43 = and i32 %42, 1
  %44 = lshr i32 %41, 2
  %45 = and i32 %44, 1073741822
  %46 = or disjoint i32 %45, %43
  %47 = getelementptr inbounds nuw i8, ptr %5, i64 32
  store i32 %46, ptr %47, align 8, !tbaa !20
  %48 = getelementptr inbounds nuw i8, ptr %39, i64 16
  %49 = load i32, ptr %48, align 8, !tbaa !29
  %50 = add nsw i32 %49, 1
  store i32 %50, ptr %48, align 8, !tbaa !29
  %51 = load i64, ptr %25, align 8
  %52 = lshr i64 %51, 61
  %53 = xor i64 %52, %23
  %54 = trunc i64 %53 to i32
  %55 = load i64, ptr %39, align 8
  %56 = lshr i64 %55, 61
  %57 = xor i64 %56, %37
  %58 = trunc i64 %57 to i32
  %59 = and i32 %58, 1
  %60 = and i32 %59, %54
  %61 = load i64, ptr %11, align 8
  %62 = lshr i64 %61, 61
  %63 = xor i64 %62, %9
  %64 = trunc i64 %63 to i32
  %65 = and i32 %64, 1
  %66 = xor i32 %59, -1
  %67 = and i32 %65, %66
  %68 = or i32 %67, %60
  %69 = zext nneg i32 %68 to i64
  %70 = load i64, ptr %5, align 8
  %71 = shl nuw nsw i64 %69, 61
  %72 = and i64 %70, -2305843009213693953
  %73 = or disjoint i64 %71, %72
  store i64 %73, ptr %5, align 8
  %74 = getelementptr inbounds nuw i8, ptr %11, i64 8
  %75 = load i32, ptr %74, align 8, !tbaa !33
  %76 = getelementptr inbounds nuw i8, ptr %25, i64 8
  %77 = load i32, ptr %76, align 8, !tbaa !33
  %78 = tail call noundef i32 @llvm.smax.i32(i32 %75, i32 %77)
  %79 = getelementptr inbounds nuw i8, ptr %5, i64 8
  store i32 %78, ptr %79, align 8, !tbaa !33
  %80 = getelementptr inbounds nuw i8, ptr %39, i64 8
  %81 = load i32, ptr %80, align 8, !tbaa !33
  %82 = tail call noundef i32 @llvm.smax.i32(i32 %78, i32 %81)
  %83 = add nsw i32 %82, 2
  store i32 %83, ptr %79, align 8, !tbaa !33
  %84 = getelementptr inbounds nuw i8, ptr %0, i64 124
  %85 = load i32, ptr %84, align 4, !tbaa !34
  %86 = icmp slt i32 %85, %83
  br i1 %86, label %87, label %88

87:                                               ; preds = %4
  store i32 %83, ptr %84, align 4, !tbaa !34
  br label %88

88:                                               ; preds = %87, %4
  %89 = getelementptr inbounds nuw i8, ptr %0, i64 120
  %90 = load i32, ptr %89, align 8, !tbaa !20
  %91 = add nsw i32 %90, 1
  store i32 %91, ptr %89, align 8, !tbaa !20
  ret ptr %5
}